target datalayout = "e-m:e-p270:32:32-p271:32:32-p272:64:64-i64:64-i128:128-f80:128-n8:16:32:64-S128"
target triple = "x86_64-unknown-linux-gnu"

%class.btGImpactCollisionAlgorithm = type { %class.btActivatingCollisionAlgorithm, ptr, ptr, ptr, ptr, i32, i32, i32, i32 }
%class.btActivatingCollisionAlgorithm = type { %class.btCollisionAlgorithm }
%class.btCollisionAlgorithm = type { ptr, ptr }
%struct.btCollisionObjectWrapper = type { ptr, ptr, ptr, ptr, ptr, i32, i32 }
%class.btManifoldResult = type <{ %"struct.btDiscreteCollisionDetectorInterface::Result", ptr, ptr, ptr, i32, i32, i32, i32, float, [4 x i8] }>
%"struct.btDiscreteCollisionDetectorInterface::Result" = type { ptr }

; Function Attrs: mustprogress nounwind uwtable
define linkonce_odr dso_local void @_ZN16btManifoldResult21setPersistentManifoldEP20btPersistentManifold(ptr noundef nonnull align 8 dereferenceable(52) %this, ptr noundef %manifoldPtr) #1 comdat align 2 {
entry:
  %this.addr = alloca ptr, align 8
  %manifoldPtr.addr = alloca ptr, align 8
  store ptr %this, ptr %this.addr, align 8
  store ptr %manifoldPtr, ptr %manifoldPtr.addr, align 8
  %this1 = load ptr, ptr %this.addr, align 8
  %0 = load ptr, ptr %manifoldPtr.addr, align 8
  %m_manifoldPtr = getelementptr inbounds %class.btManifoldResult, ptr %this1, i32 0, i32 1
  store ptr %0, ptr %m_manifoldPtr, align 8
  ret void
}

; Function Attrs: mustprogress uwtable
define linkonce_odr dso_local noundef ptr @_ZN27btGImpactCollisionAlgorithm18newContactManifoldEPK17btCollisionObjectS2_(ptr noundef nonnull align 8 dereferenceable(64) %this, ptr noundef %body0, ptr noundef %body1) #2 comdat align 2 {
entry:
  %this.addr = alloca ptr, align 8
  %body0.addr = alloca ptr, align 8
  %body1.addr = alloca ptr, align 8
  store ptr %this, ptr %this.addr, align 8
  store ptr %body0, ptr %body0.addr, align 8
  store ptr %body1, ptr %body1.addr, align 8
  %this1 = load ptr, ptr %this.addr, align 8
  %m_dispatcher = getelementptr inbounds %class.btCollisionAlgorithm, ptr %this1, i32 0, i32 1
  %0 = load ptr, ptr %m_dispatcher, align 8
  %1 = load ptr, ptr %body0.addr, align 8
  %2 = load ptr, ptr %body1.addr, align 8
  %vtable = load ptr, ptr %0, align 8
  %vfn = getelementptr inbounds ptr, ptr %vtable, i64 3
  %3 = load ptr, ptr %vfn, align 8
  %call = call noundef ptr %3(ptr noundef nonnull align 8 dereferenceable(8) %0, ptr noundef %1, ptr noundef %2)
  %m_manifoldPtr = getelementptr inbounds %class.btGImpactCollisionAlgorithm, ptr %this1, i32 0, i32 2
  store ptr %call, ptr %m_manifoldPtr, align 8
  %m_manifoldPtr2 = getelementptr inbounds %class.btGImpactCollisionAlgorithm, ptr %this1, i32 0, i32 2
  %4 = load ptr, ptr %m_manifoldPtr2, align 8
  ret ptr %4
}

; Function Attrs: mustprogress nounwind uwtable
define linkonce_odr dso_local noundef ptr @_ZN27btGImpactCollisionAlgorithm15getLastManifoldEv(ptr noundef nonnull align 8 dereferenceable(64) %this) #1 comdat align 2 {
entry:
  %this.addr = alloca ptr, align 8
  store ptr %this, ptr %this.addr, align 8
  %this1 = load ptr, ptr %this.addr, align 8
  %m_manifoldPtr = getelementptr inbounds %class.btGImpactCollisionAlgorithm, ptr %this1, i32 0, i32 2
  %0 = load ptr, ptr %m_manifoldPtr, align 8
  ret ptr %0
}

; Function Attrs: mustprogress uwtable
define linkonce_odr dso_local void @_ZN27btGImpactCollisionAlgorithm13checkManifoldEPK24btCollisionObjectWrapperS2_(ptr noundef nonnull align 8 dereferenceable(64) %this, ptr noundef %body0Wrap, ptr noundef %body1Wrap) #2 comdat align 2 {
entry:
  %this.addr = alloca ptr, align 8
  %body0Wrap.addr = alloca ptr, align 8
  %body1Wrap.addr = alloca ptr, align 8
  store ptr %this, ptr %this.addr, align 8
  store ptr %body0Wrap, ptr %body0Wrap.addr, align 8
  store ptr %body1Wrap, ptr %body1Wrap.addr, align 8
  %this1 = load ptr, ptr %this.addr, align 8
  %call = call noundef ptr @_ZN27btGImpactCollisionAlgorithm15getLastManifoldEv(ptr noundef nonnull align 8 dereferenceable(64) %this1)
  %cmp = icmp eq ptr %call, null
  br i1 %cmp, label %if.then, label %if.end

if.then:                                          ; preds = %entry
  %0 = load ptr, ptr %body0Wrap.addr, align 8
  %call2 = call noundef ptr @_ZNK24btCollisionObjectWrapper18getCollisionObjectEv(ptr noundef nonnull align 8 dereferenceable(48) %0)
  %1 = load ptr, ptr %body1Wrap.addr, align 8
  %call3 = call noundef ptr @_ZNK24btCollisionObjectWrapper18getCollisionObjectEv(ptr noundef nonnull align 8 dereferenceable(48) %1)
  %call4 = call noundef ptr @_ZN27btGImpactCollisionAlgorithm18newContactManifoldEPK17btCollisionObjectS2_(ptr noundef nonnull align 8 dereferenceable(64) %this1, ptr noundef %call2, ptr noundef %call3)
  br label %if.end

if.end:                                           ; preds = %if.then, %entry
  %m_resultOut = getelementptr inbounds %class.btGImpactCollisionAlgorithm, ptr %this1, i32 0, i32 3
  %2 = load ptr, ptr %m_resultOut, align 8
  %call5 = call noundef ptr @_ZN27btGImpactCollisionAlgorithm15getLastManifoldEv(ptr noundef nonnull align 8 dereferenceable(64) %this1)
  call void @_ZN16btManifoldResult21setPersistentManifoldEP20btPersistentManifold(ptr noundef nonnull align 8 dereferenceable(52) %2, ptr noundef %call5)
  ret void
}

; Function Attrs: mustprogress uwtable
define linkonce_odr dso_local noundef ptr @_ZN27btGImpactCollisionAlgorithm12newAlgorithmEPK24btCollisionObjectWrapperS2_(ptr noundef nonnull align 8 dereferenceable(64) %this, ptr noundef %body0Wrap, ptr noundef %body1Wrap) #2 comdat align 2 {
entry:
  %this.addr = alloca ptr, align 8
  %body0Wrap.addr = alloca ptr, align 8
  %body1Wrap.addr = alloca ptr, align 8
  %convex_algorithm = alloca ptr, align 8
  store ptr %this, ptr %this.addr, align 8
  store ptr %body0Wrap, ptr %body0Wrap.addr, align 8
  store ptr %body1Wrap, ptr %body1Wrap.addr, align 8
  %this1 = load ptr, ptr %this.addr, align 8
  %0 = load ptr, ptr %body0Wrap.addr, align 8
  %1 = load ptr, ptr %body1Wrap.addr, align 8
  call void @_ZN27btGImpactCollisionAlgorithm13checkManifoldEPK24btCollisionObjectWrapperS2_(ptr noundef nonnull align 8 dereferenceable(64) %this1, ptr noundef %0, ptr noundef %1)
  %m_dispatcher = getelementptr inbounds %class.btCollisionAlgorithm, ptr %this1, i32 0, i32 1
  %2 = load ptr, ptr %m_dispatcher, align 8
  %3 = load ptr, ptr %body0Wrap.addr, align 8
  %4 = load ptr, ptr %body1Wrap.addr, align 8
  %call = call noundef ptr @_ZN27btGImpactCollisionAlgorithm15getLastManifoldEv(ptr noundef nonnull align 8 dereferenceable(64) %this1)
  %vtable = load ptr, ptr %2, align 8
  %vfn = getelementptr inbounds ptr, ptr %vtable, i64 2
  %5 = load ptr, ptr %vfn, align 8
  %call2 = call noundef ptr %5(ptr noundef nonnull align 8 dereferenceable(8) %2, ptr noundef %3, ptr noundef %4, ptr noundef %call, i32 noundef 1)
  store ptr %call2, ptr %convex_algorithm, align 8
  %6 = load ptr, ptr %convex_algorithm, align 8
  ret ptr %6
}

; Function Attrs: mustprogress uwtable
define linkonce_odr dso_local void @_ZN27btGImpactCollisionAlgorithm20checkConvexAlgorithmEPK24btCollisionObjectWrapperS2_(ptr noundef nonnull align 8 dereferenceable(64) %this, ptr noundef %body0Wrap, ptr noundef %body1Wrap) #2 comdat align 2 {
entry:
  %this.addr = alloca ptr, align 8
  %body0Wrap.addr = alloca ptr, align 8
  %body1Wrap.addr = alloca ptr, align 8
  store ptr %this, ptr %this.addr, align 8
  store ptr %body0Wrap, ptr %body0Wrap.addr, align 8
  store ptr %body1Wrap, ptr %body1Wrap.addr, align 8
  %this1 = load ptr, ptr %this.addr, align 8
  %m_convex_algorithm = getelementptr inbounds %class.btGImpactCollisionAlgorithm, ptr %this1, i32 0, i32 1
  %0 = load ptr, ptr %m_convex_algorithm, align 8
  %tobool = icmp ne ptr %0, null
  br i1 %tobool, label %if.then, label %if.end

if.then:                                          ; preds = %entry
  br label %return

if.end:                                           ; preds = %entry
  %1 = load ptr, ptr %body0Wrap.addr, align 8
  %2 = load ptr, ptr %body1Wrap.addr, align 8
  %call = call noundef ptr @_ZN27btGImpactCollisionAlgorithm12newAlgorithmEPK24btCollisionObjectWrapperS2_(ptr noundef nonnull align 8 dereferenceable(64) %this1, ptr noundef %1, ptr noundef %2)
  %m_convex_algorithm2 = getelementptr inbounds %class.btGImpactCollisionAlgorithm, ptr %this1, i32 0, i32 1
  store ptr %call, ptr %m_convex_algorithm2, align 8
  br label %return

return:                                           ; preds = %if.end, %if.then
  ret void
}

; Function Attrs: mustprogress nounwind uwtable
define linkonce_odr dso_local void @_ZN24btCollisionObjectWrapperC2EPKS_PK16btCollisionShapePK17btCollisionObjectRK11btTransformii(ptr noundef nonnull align 8 dereferenceable(48) %this, ptr noundef %parent, ptr noundef %shape, ptr noundef %collisionObject, ptr noundef nonnull align 4 dereferenceable(64) %worldTransform, i32 noundef %partId, i32 noundef %index) unnamed_addr #1 comdat align 2 {
entry:
  %this.addr = alloca ptr, align 8
  %parent.addr = alloca ptr, align 8
  %shape.addr = alloca ptr, align 8
  %collisionObject.addr = alloca ptr, align 8
  %worldTransform.addr = alloca ptr, align 8
  %partId.addr = alloca i32, align 4
  %index.addr = alloca i32, align 4
  store ptr %this, ptr %this.addr, align 8
  store ptr %parent, ptr %parent.addr, align 8
  store ptr %shape, ptr %shape.addr, align 8
  store ptr %collisionObject, ptr %collisionObject.addr, align 8
  store ptr %worldTransform, ptr %worldTransform.addr, align 8
  store i32 %partId, ptr %partId.addr, align 4
  store i32 %index, ptr %index.addr, align 4
  %this1 = load ptr, ptr %this.addr, align 8
  %m_parent = getelementptr inbounds %struct.btCollisionObjectWrapper, ptr %this1, i32 0, i32 0
  %0 = load ptr, ptr %parent.addr, align 8
  store ptr %0, ptr %m_parent, align 8
  %m_shape = getelementptr inbounds %struct.btCollisionObjectWrapper, ptr %this1, i32 0, i32 1
  %1 = load ptr, ptr %shape.addr, align 8
  store ptr %1, ptr %m_shape, align 8
  %m_collisionObject = getelementptr inbounds %struct.btCollisionObjectWrapper, ptr %this1, i32 0, i32 2
  %2 = load ptr, ptr %collisionObject.addr, align 8
  store ptr %2, ptr %m_collisionObject, align 8
  %m_worldTransform = getelementptr inbounds %struct.btCollisionObjectWrapper, ptr %this1, i32 0, i32 3
  %3 = load ptr, ptr %worldTransform.addr, align 8
  store ptr %3, ptr %m_worldTransform, align 8
  %m_preTransform = getelementptr inbounds %struct.btCollisionObjectWrapper, ptr %this1, i32 0, i32 4
  store ptr null, ptr %m_preTransform, align 8
  %m_partId = getelementptr inbounds %struct.btCollisionObjectWrapper, ptr %this1, i32 0, i32 5
  %4 = load i32, ptr %partId.addr, align 4
  store i32 %4, ptr %m_partId, align 8
  %m_index = getelementptr inbounds %struct.btCollisionObjectWrapper, ptr %this1, i32 0, i32 6
  %5 = load i32, ptr %index.addr, align 4
  store i32 %5, ptr %m_index, align 4
  ret void
}

; Function Attrs: mustprogress nounwind uwtable
define linkonce_odr dso_local noundef nonnull align 4 dereferenceable(64) ptr @_ZNK24btCollisionObjectWrapper17getWorldTransformEv(ptr noundef nonnull align 8 dereferenceable(48) %this) #1 comdat align 2 {
entry:
  %this.addr = alloca ptr, align 8
  store ptr %this, ptr %this.addr, align 8
  %this1 = load ptr, ptr %this.addr, align 8
  %m_worldTransform = getelementptr inbounds %struct.btCollisionObjectWrapper, ptr %this1, i32 0, i32 3
  %0 = load ptr, ptr %m_worldTransform, align 8
  ret ptr %0
}

; Function Attrs: mustprogress nounwind uwtable
define linkonce_odr dso_local noundef ptr @_ZNK24btCollisionObjectWrapper18getCollisionObjectEv(ptr noundef nonnull align 8 dereferenceable(48) %this) #1 comdat align 2 {
entry:
  %this.addr = alloca ptr, align 8
  store ptr %this, ptr %this.addr, align 8
  %this1 = load ptr, ptr %this.addr, align 8
  %m_collisionObject = getelementptr inbounds %struct.btCollisionObjectWrapper, ptr %this1, i32 0, i32 2
  %0 = load ptr, ptr %m_collisionObject, align 8
  ret ptr %0
}

; Function Attrs: mustprogress uwtable
define dso_local void @_ZN27btGImpactCollisionAlgorithm26convex_vs_convex_collisionEPK24btCollisionObjectWrapperS2_PK16btCollisionShapeS5_(ptr noundef nonnull align 8 dereferenceable(64) %this, ptr noundef %body0Wrap, ptr noundef %body1Wrap, ptr noundef %shape0, ptr noundef %shape1) #2 align 2 {
entry:
  %this.addr = alloca ptr, align 8
  %body0Wrap.addr = alloca ptr, align 8
  %body1Wrap.addr = alloca ptr, align 8
  %shape0.addr = alloca ptr, align 8
  %shape1.addr = alloca ptr, align 8
  %ob0 = alloca %struct.btCollisionObjectWrapper, align 8
  %ob1 = alloca %struct.btCollisionObjectWrapper, align 8
  store ptr %this, ptr %this.addr, align 8
  store ptr %body0Wrap, ptr %body0Wrap.addr, align 8
  store ptr %body1Wrap, ptr %body1Wrap.addr, align 8
  store ptr %shape0, ptr %shape0.addr, align 8
  store ptr %shape1, ptr %shape1.addr, align 8
  %this1 = load ptr, ptr %this.addr, align 8
  %m_resultOut = getelementptr inbounds %class.btGImpactCollisionAlgorithm, ptr %this1, i32 0, i32 3
  %0 = load ptr, ptr %m_resultOut, align 8
  %m_part0 = getelementptr inbounds %class.btGImpactCollisionAlgorithm, ptr %this1, i32 0, i32 6
  %1 = load i32, ptr %m_part0, align 4
  %m_triface0 = getelementptr inbounds %class.btGImpactCollisionAlgorithm, ptr %this1, i32 0, i32 5
  %2 = load i32, ptr %m_triface0, align 8
  %vtable = load ptr, ptr %0, align 8
  %vfn = getelementptr inbounds ptr, ptr %vtable, i64 2
  %3 = load ptr, ptr %vfn, align 8
  call void %3(ptr noundef nonnull align 8 dereferenceable(52) %0, i32 noundef %1, i32 noundef %2)
  %m_resultOut2 = getelementptr inbounds %class.btGImpactCollisionAlgorithm, ptr %this1, i32 0, i32 3
  %4 = load ptr, ptr %m_resultOut2, align 8
  %m_part1 = getelementptr inbounds %class.btGImpactCollisionAlgorithm, ptr %this1, i32 0, i32 8
  %5 = load i32, ptr %m_part1, align 4
  %m_triface1 = getelementptr inbounds %class.btGImpactCollisionAlgorithm, ptr %this1, i32 0, i32 7
  %6 = load i32, ptr %m_triface1, align 8
  %vtable3 = load ptr, ptr %4, align 8
  %vfn4 = getelementptr inbounds ptr, ptr %vtable3, i64 3
  %7 = load ptr, ptr %vfn4, align 8
  call void %7(ptr noundef nonnull align 8 dereferenceable(52) %4, i32 noundef %5, i32 noundef %6)
  %8 = load ptr, ptr %body0Wrap.addr, align 8
  %9 = load ptr, ptr %shape0.addr, align 8
  %10 = load ptr, ptr %body0Wrap.addr, align 8
  %call = call noundef ptr @_ZNK24btCollisionObjectWrapper18getCollisionObjectEv(ptr noundef nonnull align 8 dereferenceable(48) %10)
  %11 = load ptr, ptr %body0Wrap.addr, align 8
  %call5 = call noundef nonnull align 4 dereferenceable(64) ptr @_ZNK24btCollisionObjectWrapper17getWorldTransformEv(ptr noundef nonnull align 8 dereferenceable(48) %11)
  %m_part06 = getelementptr inbounds %class.btGImpactCollisionAlgorithm, ptr %this1, i32 0, i32 6
  %12 = load i32, ptr %m_part06, align 4
  %m_triface07 = getelementptr inbounds %class.btGImpactCollisionAlgorithm, ptr %this1, i32 0, i32 5
  %13 = load i32, ptr %m_triface07, align 8
  call void @_ZN24btCollisionObjectWrapperC2EPKS_PK16btCollisionShapePK17btCollisionObjectRK11btTransformii(ptr noundef nonnull align 8 dereferenceable(48) %ob0, ptr noundef %8, ptr noundef %9, ptr noundef %call, ptr noundef nonnull align 4 dereferenceable(64) %call5, i32 noundef %12, i32 noundef %13)
  %14 = load ptr, ptr %body1Wrap.addr, align 8
  %15 = load ptr, ptr %shape1.addr, align 8
  %16 = load ptr, ptr %body1Wrap.addr, align 8
  %call8 = call noundef ptr @_ZNK24btCollisionObjectWrapper18getCollisionObjectEv(ptr noundef nonnull align 8 dereferenceable(48) %16)
  %17 = load ptr, ptr %body1Wrap.addr, align 8
  %call9 = call noundef nonnull align 4 dereferenceable(64) ptr @_ZNK24btCollisionObjectWrapper17getWorldTransformEv(ptr noundef nonnull align 8 dereferenceable(48) %17)
  %m_part110 = getelementptr inbounds %class.btGImpactCollisionAlgorithm, ptr %this1, i32 0, i32 8
  %18 = load i32, ptr %m_part110, align 4
  %m_triface111 = getelementptr inbounds %class.btGImpactCollisionAlgorithm, ptr %this1, i32 0, i32 7
  %19 = load i32, ptr %m_triface111, align 8
  call void @_ZN24btCollisionObjectWrapperC2EPKS_PK16btCollisionShapePK17btCollisionObjectRK11btTransformii(ptr noundef nonnull align 8 dereferenceable(48) %ob1, ptr noundef %14, ptr noundef %15, ptr noundef %call8, ptr noundef nonnull align 4 dereferenceable(64) %call9, i32 noundef %18, i32 noundef %19)
  call void @_ZN27btGImpactCollisionAlgorithm20checkConvexAlgorithmEPK24btCollisionObjectWrapperS2_(ptr noundef nonnull align 8 dereferenceable(64) %this1, ptr noundef %ob0, ptr noundef %ob1)
  %m_convex_algorithm = getelementptr inbounds %class.btGImpactCollisionAlgorithm, ptr %this1, i32 0, i32 1
  %20 = load ptr, ptr %m_convex_algorithm, align 8
  %m_dispatchInfo = getelementptr inbounds %class.btGImpactCollisionAlgorithm, ptr %this1, i32 0, i32 4
  %21 = load ptr, ptr %m_dispatchInfo, align 8
  %m_resultOut12 = getelementptr inbounds %class.btGImpactCollisionAlgorithm, ptr %this1, i32 0, i32 3
  %22 = load ptr, ptr %m_resultOut12, align 8
  %vtable13 = load ptr, ptr %20, align 8
  %vfn14 = getelementptr inbounds ptr, ptr %vtable13, i64 2
  %23 = load ptr, ptr %vfn14, align 8
  call void %23(ptr noundef nonnull align 8 dereferenceable(16) %20, ptr noundef %ob0, ptr noundef %ob1, ptr noundef nonnull align 8 dereferenceable(49) %21, ptr noundef %22)
  ret void
}