; Function Attrs: mustprogress uwtable
define dso_local void @_ZN27btGImpactCollisionAlgorithm26convex_vs_convex_collisionEPK24btCollisionObjectWrapperS2_PK16btCollisionShapeS5_(ptr nocapture noundef nonnull align 8 dereferenceable(64) %this, ptr noundef %body0Wrap, ptr noundef %body1Wrap, ptr noundef %shape0, ptr noundef %shape1) local_unnamed_addr #0 align 2 {
entry:
  %ob0 = alloca %struct.btCollisionObjectWrapper, align 8
  %ob1 = alloca %struct.btCollisionObjectWrapper, align 8
  %m_resultOut = getelementptr inbounds i8, ptr %this, i64 32
  %0 = load ptr, ptr %m_resultOut, align 8
  %m_part0 = getelementptr inbounds i8, ptr %this, i64 52
  %1 = load i32, ptr %m_part0, align 4
  %m_triface0 = getelementptr inbounds i8, ptr %this, i64 48
  %2 = load i32, ptr %m_triface0, align 8
  %vtable = load ptr, ptr %0, align 8
  %vfn = getelementptr inbounds i8, ptr %vtable, i64 16
  %3 = load ptr, ptr %vfn, align 8
  tail call void %3(ptr noundef nonnull align 8 dereferenceable(52) %0, i32 noundef %1, i32 noundef %2)
  %4 = load ptr, ptr %m_resultOut, align 8
  %m_part1 = getelementptr inbounds i8, ptr %this, i64 60
  %5 = load i32, ptr %m_part1, align 4
  %m_triface1 = getelementptr inbounds i8, ptr %this, i64 56
  %6 = load i32, ptr %m_triface1, align 8
  %vtable3 = load ptr, ptr %4, align 8
  %vfn4 = getelementptr inbounds i8, ptr %vtable3, i64 24
  %7 = load ptr, ptr %vfn4, align 8
  tail call void %7(ptr noundef nonnull align 8 dereferenceable(52) %4, i32 noundef %5, i32 noundef %6)
  %m_collisionObject.i = getelementptr inbounds i8, ptr %body0Wrap, i64 16
  %8 = load ptr, ptr %m_collisionObject.i, align 8
  %m_worldTransform.i = getelementptr inbounds i8, ptr %body0Wrap, i64 24
  %9 = load ptr, ptr %m_worldTransform.i, align 8
  store ptr %body0Wrap, ptr %ob0, align 8
  %m_shape.i = getelementptr inbounds i8, ptr %ob0, i64 8
  store ptr %shape0, ptr %m_shape.i, align 8
  %m_collisionObject.i5 = getelementptr inbounds i8, ptr %ob0, i64 16
  store ptr %8, ptr %m_collisionObject.i5, align 8
  %m_worldTransform.i6 = getelementptr inbounds i8, ptr %ob0, i64 24
  store ptr %9, ptr %m_worldTransform.i6, align 8
  %m_preTransform.i = getelementptr inbounds i8, ptr %ob0, i64 32
  store ptr null, ptr %m_preTransform.i, align 8
  %m_partId.i = getelementptr inbounds i8, ptr %ob0, i64 40
  %10 = load <2 x i32>, ptr %m_triface0, align 8
  %11 = shufflevector <2 x i32> %10, <2 x i32> poison, <2 x i32> <i32 1, i32 0>
  store <2 x i32> %11, ptr %m_partId.i, align 8
  %m_collisionObject.i7 = getelementptr inbounds i8, ptr %body1Wrap, i64 16
  %12 = load ptr, ptr %m_collisionObject.i7, align 8
  %m_worldTransform.i8 = getelementptr inbounds i8, ptr %body1Wrap, i64 24
  %13 = load ptr, ptr %m_worldTransform.i8, align 8
  store ptr %body1Wrap, ptr %ob1, align 8
  %m_shape.i9 = getelementptr inbounds i8, ptr %ob1, i64 8
  store ptr %shape1, ptr %m_shape.i9, align 8
  %m_collisionObject.i10 = getelementptr inbounds i8, ptr %ob1, i64 16
  store ptr %12, ptr %m_collisionObject.i10, align 8
  %m_worldTransform.i11 = getelementptr inbounds i8, ptr %ob1, i64 24
  store ptr %13, ptr %m_worldTransform.i11, align 8
  %m_preTransform.i12 = getelementptr inbounds i8, ptr %ob1, i64 32
  store ptr null, ptr %m_preTransform.i12, align 8
  %m_partId.i13 = getelementptr inbounds i8, ptr %ob1, i64 40
  %14 = load <2 x i32>, ptr %m_triface1, align 8
  %15 = shufflevector <2 x i32> %14, <2 x i32> poison, <2 x i32> <i32 1, i32 0>
  store <2 x i32> %15, ptr %m_partId.i13, align 8
  %m_convex_algorithm.i = getelementptr inbounds i8, ptr %this, i64 16
  %16 = load ptr, ptr %m_convex_algorithm.i, align 8
  %tobool.not.i = icmp eq ptr %16, null
  br i1 %tobool.not.i, label %if.end.i, label %_ZN27btGImpactCollisionAlgorithm20checkConvexAlgorithmEPK24btCollisionObjectWrapperS2_.exit

if.end.i:                                         ; preds = %entry
  %m_manifoldPtr.i.i.i.i = getelementptr inbounds i8, ptr %this, i64 24
  %17 = load ptr, ptr %m_manifoldPtr.i.i.i.i, align 8
  %cmp.i.i.i = icmp eq ptr %17, null
  br i1 %cmp.i.i.i, label %if.then.i.i.i, label %_ZN27btGImpactCollisionAlgorithm12newAlgorithmEPK24btCollisionObjectWrapperS2_.exit.i

if.then.i.i.i:                                    ; preds = %if.end.i
  %m_dispatcher.i.i.i.i = getelementptr inbounds i8, ptr %this, i64 8
  %18 = load ptr, ptr %m_dispatcher.i.i.i.i, align 8
  %vtable.i.i.i.i = load ptr, ptr %18, align 8
  %vfn.i.i.i.i = getelementptr inbounds i8, ptr %vtable.i.i.i.i, i64 24
  %19 = load ptr, ptr %vfn.i.i.i.i, align 8
  %call.i.i.i.i = tail call noundef ptr %19(ptr noundef nonnull align 8 dereferenceable(8) %18, ptr noundef %8, ptr noundef %12)
  store ptr %call.i.i.i.i, ptr %m_manifoldPtr.i.i.i.i, align 8
  br label %_ZN27btGImpactCollisionAlgorithm12newAlgorithmEPK24btCollisionObjectWrapperS2_.exit.i

_ZN27btGImpactCollisionAlgorithm12newAlgorithmEPK24btCollisionObjectWrapperS2_.exit.i: ; preds = %if.then.i.i.i, %if.end.i
  %20 = phi ptr [ %call.i.i.i.i, %if.then.i.i.i ], [ %17, %if.end.i ]
  %21 = load ptr, ptr %m_resultOut, align 8
  %m_manifoldPtr.i4.i.i.i = getelementptr inbounds i8, ptr %21, i64 8
  store ptr %20, ptr %m_manifoldPtr.i4.i.i.i, align 8
  %m_dispatcher.i.i = getelementptr inbounds i8, ptr %this, i64 8
  %22 = load ptr, ptr %m_dispatcher.i.i, align 8
  %23 = load ptr, ptr %m_manifoldPtr.i.i.i.i, align 8
  %vtable.i.i = load ptr, ptr %22, align 8
  %vfn.i.i = getelementptr inbounds i8, ptr %vtable.i.i, i64 16
  %24 = load ptr, ptr %vfn.i.i, align 8
  %call2.i.i = call noundef ptr %24(ptr noundef nonnull align 8 dereferenceable(8) %22, ptr noundef nonnull %ob0, ptr noundef nonnull %ob1, ptr noundef %23, i32 noundef 1)
  store ptr %call2.i.i, ptr %m_convex_algorithm.i, align 8
  br label %_ZN27btGImpactCollisionAlgorithm20checkConvexAlgorithmEPK24btCollisionObjectWrapperS2_.exit

_ZN27btGImpactCollisionAlgorithm20checkConvexAlgorithmEPK24btCollisionObjectWrapperS2_.exit: ; preds = %entry, %_ZN27btGImpactCollisionAlgorithm12newAlgorithmEPK24btCollisionObjectWrapperS2_.exit.i
  %25 = phi ptr [ %16, %entry ], [ %call2.i.i, %_ZN27btGImpactCollisionAlgorithm12newAlgorithmEPK24btCollisionObjectWrapperS2_.exit.i ]
  %m_dispatchInfo = getelementptr inbounds i8, ptr %this, i64 40
  %26 = load ptr, ptr %m_dispatchInfo, align 8
  %27 = load ptr, ptr %m_resultOut, align 8
  %vtable13 = load ptr, ptr %25, align 8
  %vfn14 = getelementptr inbounds i8, ptr %vtable13, i64 16
  %28 = load ptr, ptr %vfn14, align 8
  call void %28(ptr noundef nonnull align 8 dereferenceable(16) %25, ptr noundef nonnull %ob0, ptr noundef nonnull %ob1, ptr noundef nonnull align 8 dereferenceable(49) %26, ptr noundef %27)
  ret void
}